target datalayout = "e-m:e-p270:32:32-p271:32:32-p272:64:64-i64:64-i128:128-f80:128-n8:16:32:64-S128"
target triple = "x86_64-pc-linux-gnu"

%struct.ossl_cmp_msg_st = type { ptr, ptr, ptr, ptr, ptr, ptr }

; Function Attrs: nounwind uwtable
define ptr @d2i_OSSL_CMP_MSG(ptr noundef %0, ptr noundef %1, i64 noundef %2) #0 {
  %4 = alloca ptr, align 8
  %5 = alloca ptr, align 8
  %6 = alloca i64, align 8
  %7 = alloca ptr, align 8
  %8 = alloca ptr, align 8
  store ptr %0, ptr %4, align 8, !tbaa !181
  store ptr %1, ptr %5, align 8, !tbaa !183
  store i64 %2, ptr %6, align 8, !tbaa !64
  call void @llvm.lifetime.start.p0(i64 8, ptr %7) #6
  store ptr null, ptr %7, align 8, !tbaa !3
  call void @llvm.lifetime.start.p0(i64 8, ptr %8) #6
  store ptr null, ptr %8, align 8, !tbaa !8
  %9 = load ptr, ptr %4, align 8, !tbaa !181
  %10 = icmp ne ptr %9, null
  br i1 %10, label %11, label %24

11:                                               ; preds = %3
  %12 = load ptr, ptr %4, align 8, !tbaa !181
  %13 = load ptr, ptr %12, align 8, !tbaa !10
  %14 = icmp ne ptr %13, null
  br i1 %14, label %15, label %24

15:                                               ; preds = %11
  %16 = load ptr, ptr %4, align 8, !tbaa !181
  %17 = load ptr, ptr %16, align 8, !tbaa !10
  %18 = getelementptr inbounds nuw %struct.ossl_cmp_msg_st, ptr %17, i32 0, i32 4
  %19 = load ptr, ptr %18, align 8, !tbaa !12
  store ptr %19, ptr %7, align 8, !tbaa !3
  %20 = load ptr, ptr %4, align 8, !tbaa !181
  %21 = load ptr, ptr %20, align 8, !tbaa !10
  %22 = getelementptr inbounds nuw %struct.ossl_cmp_msg_st, ptr %21, i32 0, i32 5
  %23 = load ptr, ptr %22, align 8, !tbaa !18
  store ptr %23, ptr %8, align 8, !tbaa !8
  br label %24

24:                                               ; preds = %15, %11, %3
  %25 = load ptr, ptr %4, align 8, !tbaa !181
  %26 = load ptr, ptr %5, align 8, !tbaa !183
  %27 = load i64, ptr %6, align 8, !tbaa !64
  %28 = call ptr @OSSL_CMP_MSG_it()
  %29 = load ptr, ptr %7, align 8, !tbaa !3
  %30 = load ptr, ptr %8, align 8, !tbaa !8
  %31 = call ptr @ASN1_item_d2i_ex(ptr noundef %25, ptr noundef %26, i64 noundef %27, ptr noundef %28, ptr noundef %29, ptr noundef %30)
  call void @llvm.lifetime.end.p0(i64 8, ptr %8) #6
  call void @llvm.lifetime.end.p0(i64 8, ptr %7) #6
  ret ptr %31
}