; Function Attrs: nounwind uwtable
define ptr @d2i_OSSL_CMP_MSG(ptr noundef %0, ptr noundef %1, i64 noundef %2) local_unnamed_addr #0 {
  %.not = icmp eq ptr %0, null
  br i1 %.not, label %11, label %4

4:                                                ; preds = %3
  %5 = load ptr, ptr %0, align 8, !tbaa !121
  %.not11 = icmp eq ptr %5, null
  br i1 %.not11, label %11, label %6

6:                                                ; preds = %4
  %7 = getelementptr inbounds nuw i8, ptr %5, i64 32
  %8 = load ptr, ptr %7, align 8, !tbaa !3
  %9 = getelementptr inbounds nuw i8, ptr %5, i64 40
  %10 = load ptr, ptr %9, align 8, !tbaa !14
  br label %11

11:                                               ; preds = %6, %4, %3
  %.08 = phi ptr [ %8, %6 ], [ null, %4 ], [ null, %3 ]
  %.0 = phi ptr [ %10, %6 ], [ null, %4 ], [ null, %3 ]
  %12 = tail call ptr @OSSL_CMP_MSG_it() #7
  %13 = tail call ptr @ASN1_item_d2i_ex(ptr noundef %0, ptr noundef %1, i64 noundef %2, ptr noundef %12, ptr noundef %.08, ptr noundef %.0) #7
  ret ptr %13
}